target datalayout = "e-m:e-p270:32:32-p271:32:32-p272:64:64-i64:64-i128:128-f80:128-n8:16:32:64-S128"
target triple = "x86_64-pc-linux-gnu"

%struct.H5VL_loc_params_t = type { i32, i32, %union.anon }
%union.anon = type { %struct.H5VL_loc_by_idx }
%struct.H5VL_loc_by_idx = type { ptr, i32, i32, i64, i64 }
%struct.H5VL_object_t = type { ptr, ptr, i64 }

@H5_libinit_g = external global i8, align 1
@H5_libterm_g = external global i8, align 1
@.str = private unnamed_addr constant [103 x i8] c"generated/home/dtcxzyw/WorkSpace/Projects/compilers/llvm-opt-benchmark/bench/hdf5/hdf5/src/H5Ddeprec.c\00", align 1
@H5E_FUNC_g = external global i64, align 8
@H5E_CANTINIT_g = external global i64, align 8
@.str.1 = private unnamed_addr constant [30 x i8] c"library initialization failed\00", align 1
@H5E_CANTSET_g = external global i64, align 8
@.str.2 = private unnamed_addr constant [22 x i8] c"can't set API context\00", align 1
@H5E_ARGS_g = external global i64, align 8
@H5E_BADVALUE_g = external global i64, align 8
@.str.3 = private unnamed_addr constant [30 x i8] c"name parameter cannot be NULL\00", align 1
@.str.4 = private unnamed_addr constant [41 x i8] c"name parameter cannot be an empty string\00", align 1
@H5E_DATASET_g = external global i64, align 8
@H5E_BADTYPE_g = external global i64, align 8
@.str.7 = private unnamed_addr constant [28 x i8] c"invalid location identifier\00", align 1
@H5P_LST_DATASET_ACCESS_ID_g = external global i64, align 8
@H5P_LST_DATASET_XFER_ID_g = external global i64, align 8
@H5E_CANTREGISTER_g = external global i64, align 8
@H5E_CLOSEERROR_g = external global i64, align 8
@.str.10 = private unnamed_addr constant [26 x i8] c"unable to release dataset\00", align 1
@__func__.H5Dopen1 = private unnamed_addr constant [9 x i8] c"H5Dopen1\00", align 1
@H5E_CANTOPENOBJ_g = external global i64, align 8
@.str.11 = private unnamed_addr constant [23 x i8] c"unable to open dataset\00", align 1
@.str.12 = private unnamed_addr constant [26 x i8] c"can't register dataset ID\00", align 1

; Function Attrs: nounwind uwtable
define i64 @H5Dopen1(i64 noundef %0, ptr noundef %1) #0 {
  %3 = alloca i64, align 8
  %4 = alloca ptr, align 8
  %5 = alloca ptr, align 8
  %6 = alloca ptr, align 8
  %7 = alloca %struct.H5VL_loc_params_t, align 8
  %8 = alloca i64, align 8
  %9 = alloca i8, align 1
  %10 = alloca i8, align 1
  store i64 %0, ptr %3, align 8
  store ptr %1, ptr %4, align 8
  store ptr null, ptr %5, align 8
  store ptr null, ptr %6, align 8
  store i64 -1, ptr %8, align 8
  store i8 0, ptr %9, align 1
  store i8 0, ptr %10, align 1
  %11 = load i8, ptr @H5_libinit_g, align 1
  %12 = trunc i8 %11 to i1
  br i1 %12, label %17, label %13

13:                                               ; preds = %2
  %14 = load i8, ptr @H5_libterm_g, align 1
  %15 = trunc i8 %14 to i1
  %16 = xor i1 %15, true
  br label %17

17:                                               ; preds = %13, %2
  %18 = phi i1 [ false, %2 ], [ %16, %13 ]
  %19 = xor i1 %18, true
  %20 = xor i1 %19, true
  %21 = zext i1 %20 to i32
  %22 = sext i32 %21 to i64
  %23 = icmp ne i64 %22, 0
  br i1 %23, label %24, label %48

24:                                               ; preds = %17
  %25 = call i32 @H5_init_library()
  %26 = icmp slt i32 %25, 0
  %27 = xor i1 %26, true
  %28 = xor i1 %27, true
  %29 = zext i1 %28 to i32
  %30 = sext i32 %29 to i64
  %31 = icmp ne i64 %30, 0
  br i1 %31, label %32, label %47

32:                                               ; preds = %24
  br label %33

33:                                               ; preds = %32
  br label %34

34:                                               ; preds = %33
  br label %35

35:                                               ; preds = %34
  %36 = load i64, ptr @H5E_FUNC_g, align 8
  %37 = load i64, ptr @H5E_CANTINIT_g, align 8
  %38 = call i32 (ptr, ptr, i32, i64, i64, ptr, ...) @H5E_printf_stack(ptr noundef @.str, ptr noundef @__func__.H5Dopen1, i32 noundef 173, i64 noundef %36, i64 noundef %37, ptr noundef @.str.1)
  br label %39

39:                                               ; preds = %35
  store i8 1, ptr %10, align 1
  %40 = load i8, ptr %10, align 1
  %41 = trunc i8 %40 to i1
  %42 = zext i1 %41 to i8
  store i8 %42, ptr %10, align 1
  br label %43

43:                                               ; preds = %39
  br label %44

44:                                               ; preds = %43
  store i64 -1, ptr %8, align 8
  br label %178

45:                                               ; No predecessors!
  br label %46

46:                                               ; preds = %45
  br label %47

47:                                               ; preds = %46, %24
  br label %48

48:                                               ; preds = %47, %17
  %49 = call i32 @H5CX_push()
  %50 = icmp slt i32 %49, 0
  %51 = xor i1 %50, true
  %52 = xor i1 %51, true
  %53 = zext i1 %52 to i32
  %54 = sext i32 %53 to i64
  %55 = icmp ne i64 %54, 0
  br i1 %55, label %56, label %71

56:                                               ; preds = %48
  br label %57

57:                                               ; preds = %56
  br label %58

58:                                               ; preds = %57
  br label %59

59:                                               ; preds = %58
  %60 = load i64, ptr @H5E_FUNC_g, align 8
  %61 = load i64, ptr @H5E_CANTSET_g, align 8
  %62 = call i32 (ptr, ptr, i32, i64, i64, ptr, ...) @H5E_printf_stack(ptr noundef @.str, ptr noundef @__func__.H5Dopen1, i32 noundef 173, i64 noundef %60, i64 noundef %61, ptr noundef @.str.2)
  br label %63

63:                                               ; preds = %59
  store i8 1, ptr %10, align 1
  %64 = load i8, ptr %10, align 1
  %65 = trunc i8 %64 to i1
  %66 = zext i1 %65 to i8
  store i8 %66, ptr %10, align 1
  br label %67

67:                                               ; preds = %63
  br label %68

68:                                               ; preds = %67
  store i64 -1, ptr %8, align 8
  br label %178

69:                                               ; No predecessors!
  br label %70

70:                                               ; preds = %69
  br label %72

71:                                               ; preds = %48
  store i8 1, ptr %9, align 1
  br label %72

72:                                               ; preds = %71, %70
  %73 = call i32 @H5E_clear_stack()
  %74 = load ptr, ptr %4, align 8
  %75 = icmp ne ptr %74, null
  br i1 %75, label %91, label %76

76:                                               ; preds = %72
  br label %77

77:                                               ; preds = %76
  br label %78

78:                                               ; preds = %77
  br label %79

79:                                               ; preds = %78
  %80 = load i64, ptr @H5E_ARGS_g, align 8
  %81 = load i64, ptr @H5E_BADVALUE_g, align 8
  %82 = call i32 (ptr, ptr, i32, i64, i64, ptr, ...) @H5E_printf_stack(ptr noundef @.str, ptr noundef @__func__.H5Dopen1, i32 noundef 177, i64 noundef %80, i64 noundef %81, ptr noundef @.str.3)
  br label %83

83:                                               ; preds = %79
  store i8 1, ptr %10, align 1
  %84 = load i8, ptr %10, align 1
  %85 = trunc i8 %84 to i1
  %86 = zext i1 %85 to i8
  store i8 %86, ptr %10, align 1
  br label %87

87:                                               ; preds = %83
  br label %88

88:                                               ; preds = %87
  store i64 -1, ptr %8, align 8
  br label %178

89:                                               ; No predecessors!
  br label %90

90:                                               ; preds = %89
  br label %91

91:                                               ; preds = %90, %72
  %92 = load ptr, ptr %4, align 8
  %93 = load i8, ptr %92, align 1
  %94 = icmp ne i8 %93, 0
  br i1 %94, label %110, label %95

95:                                               ; preds = %91
  br label %96

96:                                               ; preds = %95
  br label %97

97:                                               ; preds = %96
  br label %98

98:                                               ; preds = %97
  %99 = load i64, ptr @H5E_ARGS_g, align 8
  %100 = load i64, ptr @H5E_BADVALUE_g, align 8
  %101 = call i32 (ptr, ptr, i32, i64, i64, ptr, ...) @H5E_printf_stack(ptr noundef @.str, ptr noundef @__func__.H5Dopen1, i32 noundef 179, i64 noundef %99, i64 noundef %100, ptr noundef @.str.4)
  br label %102

102:                                              ; preds = %98
  store i8 1, ptr %10, align 1
  %103 = load i8, ptr %10, align 1
  %104 = trunc i8 %103 to i1
  %105 = zext i1 %104 to i8
  store i8 %105, ptr %10, align 1
  br label %106

106:                                              ; preds = %102
  br label %107

107:                                              ; preds = %106
  store i64 -1, ptr %8, align 8
  br label %178

108:                                              ; No predecessors!
  br label %109

109:                                              ; preds = %108
  br label %110

110:                                              ; preds = %109, %91
  %111 = getelementptr inbounds %struct.H5VL_loc_params_t, ptr %7, i32 0, i32 1
  store i32 0, ptr %111, align 4
  %112 = load i64, ptr %3, align 8
  %113 = call i32 @H5I_get_type(i64 noundef %112)
  %114 = getelementptr inbounds %struct.H5VL_loc_params_t, ptr %7, i32 0, i32 0
  store i32 %113, ptr %114, align 8
  %115 = load i64, ptr %3, align 8
  %116 = call ptr @H5VL_vol_object(i64 noundef %115)
  store ptr %116, ptr %6, align 8
  %117 = icmp eq ptr null, %116
  br i1 %117, label %118, label %133

118:                                              ; preds = %110
  br label %119

119:                                              ; preds = %118
  br label %120

120:                                              ; preds = %119
  br label %121

121:                                              ; preds = %120
  %122 = load i64, ptr @H5E_ARGS_g, align 8
  %123 = load i64, ptr @H5E_BADTYPE_g, align 8
  %124 = call i32 (ptr, ptr, i32, i64, i64, ptr, ...) @H5E_printf_stack(ptr noundef @.str, ptr noundef @__func__.H5Dopen1, i32 noundef 187, i64 noundef %122, i64 noundef %123, ptr noundef @.str.7)
  br label %125

125:                                              ; preds = %121
  store i8 1, ptr %10, align 1
  %126 = load i8, ptr %10, align 1
  %127 = trunc i8 %126 to i1
  %128 = zext i1 %127 to i8
  store i8 %128, ptr %10, align 1
  br label %129

129:                                              ; preds = %125
  br label %130

130:                                              ; preds = %129
  store i64 -1, ptr %8, align 8
  br label %178

131:                                              ; No predecessors!
  br label %132

132:                                              ; preds = %131
  br label %133

133:                                              ; preds = %132, %110
  %134 = load ptr, ptr %6, align 8
  %135 = load ptr, ptr %4, align 8
  %136 = load i64, ptr @H5P_LST_DATASET_ACCESS_ID_g, align 8
  %137 = load i64, ptr @H5P_LST_DATASET_XFER_ID_g, align 8
  %138 = call ptr @H5VL_dataset_open(ptr noundef %134, ptr noundef %7, ptr noundef %135, i64 noundef %136, i64 noundef %137, ptr noundef null)
  store ptr %138, ptr %5, align 8
  %139 = icmp eq ptr null, %138
  br i1 %139, label %140, label %155

140:                                              ; preds = %133
  br label %141

141:                                              ; preds = %140
  br label %142

142:                                              ; preds = %141
  br label %143

143:                                              ; preds = %142
  %144 = load i64, ptr @H5E_DATASET_g, align 8
  %145 = load i64, ptr @H5E_CANTOPENOBJ_g, align 8
  %146 = call i32 (ptr, ptr, i32, i64, i64, ptr, ...) @H5E_printf_stack(ptr noundef @.str, ptr noundef @__func__.H5Dopen1, i32 noundef 192, i64 noundef %144, i64 noundef %145, ptr noundef @.str.11)
  br label %147

147:                                              ; preds = %143
  store i8 1, ptr %10, align 1
  %148 = load i8, ptr %10, align 1
  %149 = trunc i8 %148 to i1
  %150 = zext i1 %149 to i8
  store i8 %150, ptr %10, align 1
  br label %151

151:                                              ; preds = %147
  br label %152

152:                                              ; preds = %151
  store i64 -1, ptr %8, align 8
  br label %178

153:                                              ; No predecessors!
  br label %154

154:                                              ; preds = %153
  br label %155

155:                                              ; preds = %154, %133
  %156 = load ptr, ptr %5, align 8
  %157 = load ptr, ptr %6, align 8
  %158 = getelementptr inbounds %struct.H5VL_object_t, ptr %157, i32 0, i32 1
  %159 = load ptr, ptr %158, align 8
  %160 = call i64 @H5VL_register(i32 noundef 5, ptr noundef %156, ptr noundef %159, i1 noundef zeroext true)
  store i64 %160, ptr %8, align 8
  %161 = icmp slt i64 %160, 0
  br i1 %161, label %162, label %177

162:                                              ; preds = %155
  br label %163

163:                                              ; preds = %162
  br label %164

164:                                              ; preds = %163
  br label %165

165:                                              ; preds = %164
  %166 = load i64, ptr @H5E_DATASET_g, align 8
  %167 = load i64, ptr @H5E_CANTREGISTER_g, align 8
  %168 = call i32 (ptr, ptr, i32, i64, i64, ptr, ...) @H5E_printf_stack(ptr noundef @.str, ptr noundef @__func__.H5Dopen1, i32 noundef 196, i64 noundef %166, i64 noundef %167, ptr noundef @.str.12)
  br label %169

169:                                              ; preds = %165
  store i8 1, ptr %10, align 1
  %170 = load i8, ptr %10, align 1
  %171 = trunc i8 %170 to i1
  %172 = zext i1 %171 to i8
  store i8 %172, ptr %10, align 1
  br label %173

173:                                              ; preds = %169
  br label %174

174:                                              ; preds = %173
  store i64 -1, ptr %8, align 8
  br label %178

175:                                              ; No predecessors!
  br label %176

176:                                              ; preds = %175
  br label %177

177:                                              ; preds = %176, %155
  br label %178

178:                                              ; preds = %177, %174, %152, %130, %107, %88, %68, %44
  %179 = load i64, ptr %8, align 8
  %180 = icmp eq i64 -1, %179
  br i1 %180, label %181, label %203

181:                                              ; preds = %178
  %182 = load ptr, ptr %5, align 8
  %183 = icmp ne ptr %182, null
  br i1 %183, label %184, label %202

184:                                              ; preds = %181
  %185 = load ptr, ptr %6, align 8
  %186 = load i64, ptr @H5P_LST_DATASET_XFER_ID_g, align 8
  %187 = call i32 @H5VL_dataset_close(ptr noundef %185, i64 noundef %186, ptr noundef null)
  %188 = icmp slt i32 %187, 0
  br i1 %188, label %189, label %202

189:                                              ; preds = %184
  br label %190

190:                                              ; preds = %189
  br label %191

191:                                              ; preds = %190
  br label %192

192:                                              ; preds = %191
  %193 = load i64, ptr @H5E_DATASET_g, align 8
  %194 = load i64, ptr @H5E_CLOSEERROR_g, align 8
  %195 = call i32 (ptr, ptr, i32, i64, i64, ptr, ...) @H5E_printf_stack(ptr noundef @.str, ptr noundef @__func__.H5Dopen1, i32 noundef 201, i64 noundef %193, i64 noundef %194, ptr noundef @.str.10)
  br label %196

196:                                              ; preds = %192
  store i8 1, ptr %10, align 1
  %197 = load i8, ptr %10, align 1
  %198 = trunc i8 %197 to i1
  %199 = zext i1 %198 to i8
  store i8 %199, ptr %10, align 1
  br label %200

200:                                              ; preds = %196
  store i64 -1, ptr %8, align 8
  br label %201

201:                                              ; preds = %200
  br label %202

202:                                              ; preds = %201, %184, %181
  br label %203

203:                                              ; preds = %202, %178
  %204 = load i8, ptr %9, align 1
  %205 = trunc i8 %204 to i1
  %206 = xor i1 %205, true
  %207 = xor i1 %206, true
  %208 = zext i1 %207 to i32
  %209 = sext i32 %208 to i64
  %210 = icmp ne i64 %209, 0
  br i1 %210, label %211, label %213

211:                                              ; preds = %203
  %212 = call i32 @H5CX_pop(i1 noundef zeroext true)
  store i8 0, ptr %9, align 1
  br label %213

213:                                              ; preds = %211, %203
  %214 = load i8, ptr %10, align 1
  %215 = trunc i8 %214 to i1
  %216 = xor i1 %215, true
  %217 = xor i1 %216, true
  %218 = zext i1 %217 to i32
  %219 = sext i32 %218 to i64
  %220 = icmp ne i64 %219, 0
  br i1 %220, label %221, label %223

221:                                              ; preds = %213
  %222 = call i32 @H5E_dump_api_stack()
  br label %223

223:                                              ; preds = %221, %213
  %224 = load i64, ptr %8, align 8
  ret i64 %224
}