; Function Attrs: nounwind uwtable
define range(i64 -1, -9223372036854775808) i64 @H5Dopen1(i64 noundef %0, ptr noundef %1) local_unnamed_addr #0 {
  %3 = alloca %struct.H5VL_loc_params_t, align 8
  %4 = load i8, ptr @H5_libinit_g, align 1
  %5 = trunc i8 %4 to i1
  %6 = load i8, ptr @H5_libterm_g, align 1
  %7 = trunc i8 %6 to i1
  %8 = select i1 %5, i1 true, i1 %7
  br i1 %8, label %16, label %9

9:                                                ; preds = %2
  %10 = tail call i32 @H5_init_library() #2
  %11 = icmp slt i32 %10, 0
  br i1 %11, label %12, label %16

12:                                               ; preds = %9
  %13 = load i64, ptr @H5E_FUNC_g, align 8
  %14 = load i64, ptr @H5E_CANTINIT_g, align 8
  %15 = tail call i32 (ptr, ptr, i32, i64, i64, ptr, ...) @H5E_printf_stack(ptr noundef nonnull @.str, ptr noundef nonnull @__func__.H5Dopen1, i32 noundef 173, i64 noundef %13, i64 noundef %14, ptr noundef nonnull @.str.1) #2
  br label %.thread56

16:                                               ; preds = %9, %2
  %17 = tail call i32 @H5CX_push() #2
  %18 = icmp slt i32 %17, 0
  br i1 %18, label %19, label %23

19:                                               ; preds = %16
  %20 = load i64, ptr @H5E_FUNC_g, align 8
  %21 = load i64, ptr @H5E_CANTSET_g, align 8
  %22 = tail call i32 (ptr, ptr, i32, i64, i64, ptr, ...) @H5E_printf_stack(ptr noundef nonnull @.str, ptr noundef nonnull @__func__.H5Dopen1, i32 noundef 173, i64 noundef %20, i64 noundef %21, ptr noundef nonnull @.str.2) #2
  br label %.thread56

23:                                               ; preds = %16
  %24 = tail call i32 @H5E_clear_stack() #2
  %.not = icmp eq ptr %1, null
  br i1 %.not, label %25, label %29

25:                                               ; preds = %23
  %26 = load i64, ptr @H5E_ARGS_g, align 8
  %27 = load i64, ptr @H5E_BADVALUE_g, align 8
  %28 = tail call i32 (ptr, ptr, i32, i64, i64, ptr, ...) @H5E_printf_stack(ptr noundef nonnull @.str, ptr noundef nonnull @__func__.H5Dopen1, i32 noundef 177, i64 noundef %26, i64 noundef %27, ptr noundef nonnull @.str.3) #2
  br label %.thread65

29:                                               ; preds = %23
  %30 = load i8, ptr %1, align 1
  %.not33 = icmp eq i8 %30, 0
  br i1 %.not33, label %31, label %35

31:                                               ; preds = %29
  %32 = load i64, ptr @H5E_ARGS_g, align 8
  %33 = load i64, ptr @H5E_BADVALUE_g, align 8
  %34 = tail call i32 (ptr, ptr, i32, i64, i64, ptr, ...) @H5E_printf_stack(ptr noundef nonnull @.str, ptr noundef nonnull @__func__.H5Dopen1, i32 noundef 179, i64 noundef %32, i64 noundef %33, ptr noundef nonnull @.str.4) #2
  br label %.thread65

35:                                               ; preds = %29
  %36 = getelementptr inbounds i8, ptr %3, i64 4
  store i32 0, ptr %36, align 4
  %37 = tail call i32 @H5I_get_type(i64 noundef %0) #2
  store i32 %37, ptr %3, align 8
  %38 = tail call ptr @H5VL_vol_object(i64 noundef %0) #2
  %39 = icmp eq ptr %38, null
  br i1 %39, label %40, label %44

40:                                               ; preds = %35
  %41 = load i64, ptr @H5E_ARGS_g, align 8
  %42 = load i64, ptr @H5E_BADTYPE_g, align 8
  %43 = tail call i32 (ptr, ptr, i32, i64, i64, ptr, ...) @H5E_printf_stack(ptr noundef nonnull @.str, ptr noundef nonnull @__func__.H5Dopen1, i32 noundef 187, i64 noundef %41, i64 noundef %42, ptr noundef nonnull @.str.7) #2
  br label %.thread65

44:                                               ; preds = %35
  %45 = load i64, ptr @H5P_LST_DATASET_ACCESS_ID_g, align 8
  %46 = load i64, ptr @H5P_LST_DATASET_XFER_ID_g, align 8
  %47 = call ptr @H5VL_dataset_open(ptr noundef nonnull %38, ptr noundef nonnull %3, ptr noundef nonnull %1, i64 noundef %45, i64 noundef %46, ptr noundef null) #2
  %48 = icmp eq ptr %47, null
  br i1 %48, label %49, label %53

49:                                               ; preds = %44
  %50 = load i64, ptr @H5E_DATASET_g, align 8
  %51 = load i64, ptr @H5E_CANTOPENOBJ_g, align 8
  %52 = call i32 (ptr, ptr, i32, i64, i64, ptr, ...) @H5E_printf_stack(ptr noundef nonnull @.str, ptr noundef nonnull @__func__.H5Dopen1, i32 noundef 192, i64 noundef %50, i64 noundef %51, ptr noundef nonnull @.str.11) #2
  br label %.thread65

53:                                               ; preds = %44
  %54 = getelementptr inbounds i8, ptr %38, i64 8
  %55 = load ptr, ptr %54, align 8
  %56 = call i64 @H5VL_register(i32 noundef 5, ptr noundef nonnull %47, ptr noundef %55, i1 noundef zeroext true) #2
  %57 = icmp slt i64 %56, 0
  br i1 %57, label %58, label %71

58:                                               ; preds = %53
  %59 = load i64, ptr @H5E_DATASET_g, align 8
  %60 = load i64, ptr @H5E_CANTREGISTER_g, align 8
  %61 = call i32 (ptr, ptr, i32, i64, i64, ptr, ...) @H5E_printf_stack(ptr noundef nonnull @.str, ptr noundef nonnull @__func__.H5Dopen1, i32 noundef 196, i64 noundef %59, i64 noundef %60, ptr noundef nonnull @.str.12) #2
  %62 = load i64, ptr @H5P_LST_DATASET_XFER_ID_g, align 8
  %63 = call i32 @H5VL_dataset_close(ptr noundef nonnull %38, i64 noundef %62, ptr noundef null) #2
  %64 = icmp slt i32 %63, 0
  br i1 %64, label %65, label %.thread61

65:                                               ; preds = %58
  %66 = load i64, ptr @H5E_DATASET_g, align 8
  %67 = load i64, ptr @H5E_CLOSEERROR_g, align 8
  %68 = call i32 (ptr, ptr, i32, i64, i64, ptr, ...) @H5E_printf_stack(ptr noundef nonnull @.str, ptr noundef nonnull @__func__.H5Dopen1, i32 noundef 201, i64 noundef %66, i64 noundef %67, ptr noundef nonnull @.str.10) #2
  br label %.thread61

.thread61:                                        ; preds = %58, %65
  %69 = call i32 @H5CX_pop(i1 noundef zeroext true) #2
  br label %.thread56

.thread65:                                        ; preds = %40, %49, %31, %25
  %70 = call i32 @H5CX_pop(i1 noundef zeroext true) #2
  br label %.thread56

71:                                               ; preds = %53
  %72 = call i32 @H5CX_pop(i1 noundef zeroext true) #2
  br label %74

.thread56:                                        ; preds = %12, %19, %.thread65, %.thread61
  %73 = call i32 @H5E_dump_api_stack() #2
  br label %74

74:                                               ; preds = %71, %.thread56
  %.1244659 = phi i64 [ -1, %.thread56 ], [ %56, %71 ]
  ret i64 %.1244659
}